target datalayout = "e-m:e-p270:32:32-p271:32:32-p272:64:64-i64:64-i128:128-f80:128-n8:16:32:64-S128"
target triple = "x86_64-unknown-linux-gnu"

%struct.llama_data_buffer_context = type { %struct.llama_data_context, ptr, i64 }
%struct.llama_data_context = type { ptr }

@_ZTV18llama_data_context = linkonce_odr unnamed_addr constant { [6 x ptr] } { [6 x ptr] [ptr null, ptr @_ZTI18llama_data_context, ptr @__cxa_pure_virtual, ptr @__cxa_pure_virtual, ptr @_ZN18llama_data_contextD2Ev, ptr @_ZN18llama_data_contextD0Ev] }, comdat, align 8

; Function Attrs: mustprogress nounwind uwtable
define linkonce_odr void @_ZN18llama_data_contextD2Ev(ptr noundef nonnull align 8 dereferenceable(8) %this) unnamed_addr #1 comdat align 2 {
entry:
  %this.addr = alloca ptr, align 8
  store ptr %this, ptr %this.addr, align 8
  ret void
}

; Function Attrs: mustprogress nounwind uwtable
define linkonce_odr void @_ZN18llama_data_contextC2Ev(ptr noundef nonnull align 8 dereferenceable(8) %this) unnamed_addr #1 comdat align 2 {
entry:
  %this.addr = alloca ptr, align 8
  store ptr %this, ptr %this.addr, align 8
  %this1 = load ptr, ptr %this.addr, align 8
  store ptr getelementptr inbounds ({ [6 x ptr] }, ptr @_ZTV18llama_data_context, i32 0, i32 0, i32 2), ptr %this1, align 8
  ret void
}

; Function Attrs: mustprogress nounwind uwtable
define linkonce_odr void @_ZN25llama_data_buffer_contextD2Ev(ptr noundef nonnull align 8 dereferenceable(24) %this) unnamed_addr #1 comdat align 2 {
entry:
  %this.addr = alloca ptr, align 8
  store ptr %this, ptr %this.addr, align 8
  %this1 = load ptr, ptr %this.addr, align 8
  call void @_ZN18llama_data_contextD2Ev(ptr noundef nonnull align 8 dereferenceable(8) %this1) #3
  ret void
}

; Function Attrs: mustprogress nounwind uwtable
define linkonce_odr noundef i64 @_ZN25llama_data_buffer_context16get_size_writtenEv(ptr noundef nonnull align 8 dereferenceable(24) %this) unnamed_addr #1 comdat align 2 {
entry:
  %this.addr = alloca ptr, align 8
  store ptr %this, ptr %this.addr, align 8
  %this1 = load ptr, ptr %this.addr, align 8
  %size_written = getelementptr inbounds %struct.llama_data_buffer_context, ptr %this1, i32 0, i32 2
  %0 = load i64, ptr %size_written, align 8
  ret i64 %0
}

; Function Attrs: mustprogress nounwind uwtable
define linkonce_odr void @_ZN25llama_data_buffer_contextC2EPh(ptr noundef nonnull align 8 dereferenceable(24) %this, ptr noundef %p) unnamed_addr #1 comdat align 2 {
entry:
  %this.addr = alloca ptr, align 8
  %p.addr = alloca ptr, align 8
  store ptr %this, ptr %this.addr, align 8
  store ptr %p, ptr %p.addr, align 8
  %this1 = load ptr, ptr %this.addr, align 8
  call void @_ZN18llama_data_contextC2Ev(ptr noundef nonnull align 8 dereferenceable(8) %this1) #3
  store ptr getelementptr inbounds ({ [6 x ptr] }, ptr @_ZTV25llama_data_buffer_context, i32 0, i32 0, i32 2), ptr %this1, align 8
  %ptr = getelementptr inbounds %struct.llama_data_buffer_context, ptr %this1, i32 0, i32 1
  %0 = load ptr, ptr %p.addr, align 8
  store ptr %0, ptr %ptr, align 8
  %size_written = getelementptr inbounds %struct.llama_data_buffer_context, ptr %this1, i32 0, i32 2
  store i64 0, ptr %size_written, align 8
  ret void
}

; Function Attrs: mustprogress uwtable
define i64 @llama_copy_state_data(ptr noundef %ctx, ptr noundef %dst) #2 personality ptr @__gxx_personality_v0 {
entry:
  %ctx.addr = alloca ptr, align 8
  %dst.addr = alloca ptr, align 8
  %data_ctx = alloca %struct.llama_data_buffer_context, align 8
  %exn.slot = alloca ptr, align 8
  %ehselector.slot = alloca i32, align 4
  store ptr %ctx, ptr %ctx.addr, align 8
  store ptr %dst, ptr %dst.addr, align 8
  %0 = load ptr, ptr %dst.addr, align 8
  call void @_ZN25llama_data_buffer_contextC2EPh(ptr noundef nonnull align 8 dereferenceable(24) %data_ctx, ptr noundef %0)
  %1 = load ptr, ptr %ctx.addr, align 8
  invoke void @_ZL30llama_copy_state_data_internalP13llama_contextP18llama_data_context(ptr noundef %1, ptr noundef %data_ctx)
          to label %invoke.cont unwind label %lpad

invoke.cont:                                      ; preds = %entry
  %call = invoke noundef i64 @_ZN25llama_data_buffer_context16get_size_writtenEv(ptr noundef nonnull align 8 dereferenceable(24) %data_ctx)
          to label %invoke.cont1 unwind label %lpad

invoke.cont1:                                     ; preds = %invoke.cont
  call void @_ZN25llama_data_buffer_contextD2Ev(ptr noundef nonnull align 8 dereferenceable(24) %data_ctx) #3
  ret i64 %call

lpad:                                             ; preds = %invoke.cont, %entry
  %2 = landingpad { ptr, i32 }
          cleanup
  %3 = extractvalue { ptr, i32 } %2, 0
  store ptr %3, ptr %exn.slot, align 8
  %4 = extractvalue { ptr, i32 } %2, 1
  store i32 %4, ptr %ehselector.slot, align 4
  call void @_ZN25llama_data_buffer_contextD2Ev(ptr noundef nonnull align 8 dereferenceable(24) %data_ctx) #3
  br label %eh.resume

eh.resume:                                        ; preds = %lpad
  %exn = load ptr, ptr %exn.slot, align 8
  %sel = load i32, ptr %ehselector.slot, align 4
  %lpad.val = insertvalue { ptr, i32 } poison, ptr %exn, 0
  %lpad.val2 = insertvalue { ptr, i32 } %lpad.val, i32 %sel, 1
  resume { ptr, i32 } %lpad.val2
}