; Function Attrs: mustprogress uwtable
define i64 @llama_copy_state_data(ptr noundef %ctx, ptr noundef %dst) local_unnamed_addr #2 personality ptr @__gxx_personality_v0 {
entry:
  %data_ctx = alloca %struct.llama_data_buffer_context, align 8
  store ptr getelementptr inbounds ({ [6 x ptr] }, ptr @_ZTV25llama_data_buffer_context, i64 0, i32 0, i64 2), ptr %data_ctx, align 8
  %ptr.i = getelementptr inbounds i8, ptr %data_ctx, i64 8
  store ptr %dst, ptr %ptr.i, align 8
  %size_written.i = getelementptr inbounds i8, ptr %data_ctx, i64 16
  store i64 0, ptr %size_written.i, align 8
  call fastcc void @_ZL30llama_copy_state_data_internalP13llama_contextP18llama_data_context(ptr noundef %ctx, ptr noundef nonnull %data_ctx)
  %0 = load i64, ptr %size_written.i, align 8
  ret i64 %0
}